target datalayout = "e-m:e-p270:32:32-p271:32:32-p272:64:64-i64:64-i128:128-f80:128-n8:16:32:64-S128"
target triple = "x86_64-unknown-linux-gnu"

%class.aiVector3t = type { float, float, float }

; Function Attrs: mustprogress nounwind uwtable
define linkonce_odr hidden void @_ZN10aiVector3tIfEC2Efff(ptr noundef nonnull align 4 dereferenceable(12) %this, float noundef %_x, float noundef %_y, float noundef %_z) unnamed_addr #0 comdat align 2 {
entry:
  %this.addr = alloca ptr, align 8
  %_x.addr = alloca float, align 4
  %_y.addr = alloca float, align 4
  %_z.addr = alloca float, align 4
  store ptr %this, ptr %this.addr, align 8
  store float %_x, ptr %_x.addr, align 4
  store float %_y, ptr %_y.addr, align 4
  store float %_z, ptr %_z.addr, align 4
  %this1 = load ptr, ptr %this.addr, align 8
  %x = getelementptr inbounds %class.aiVector3t, ptr %this1, i32 0, i32 0
  %0 = load float, ptr %_x.addr, align 4
  store float %0, ptr %x, align 4
  %y = getelementptr inbounds %class.aiVector3t, ptr %this1, i32 0, i32 1
  %1 = load float, ptr %_y.addr, align 4
  store float %1, ptr %y, align 4
  %z = getelementptr inbounds %class.aiVector3t, ptr %this1, i32 0, i32 2
  %2 = load float, ptr %_z.addr, align 4
  store float %2, ptr %z, align 4
  ret void
}

; Function Attrs: mustprogress nounwind uwtable
define linkonce_odr noundef float @_ZSt3sinf(float noundef %__x) #0 comdat {
entry:
  %__x.addr = alloca float, align 4
  store float %__x, ptr %__x.addr, align 4
  %0 = load float, ptr %__x.addr, align 4
  %call = call float @sinf(float noundef %0) #5
  ret float %call
}

; Function Attrs: mustprogress nounwind uwtable
define linkonce_odr noundef float @_ZSt3cosf(float noundef %__x) #0 comdat {
entry:
  %__x.addr = alloca float, align 4
  store float %__x, ptr %__x.addr, align 4
  %0 = load float, ptr %__x.addr, align 4
  %call = call float @cosf(float noundef %0) #5
  ret float %call
}

; Function Attrs: mustprogress uwtable
define hidden { <2 x float>, float } @_ZN6Assimp12X3DGeoHelper12make_point2DEff(float noundef %angle, float noundef %radius) #2 align 2 {
entry:
  %retval = alloca %class.aiVector3t, align 4
  %angle.addr = alloca float, align 4
  %radius.addr = alloca float, align 4
  %retval.coerce = alloca { <2 x float>, float }, align 8
  store float %angle, ptr %angle.addr, align 4
  store float %radius, ptr %radius.addr, align 4
  %0 = load float, ptr %radius.addr, align 4
  %1 = load float, ptr %angle.addr, align 4
  %call = call noundef float @_ZSt3cosf(float noundef %1)
  %mul = fmul float %0, %call
  %2 = load float, ptr %radius.addr, align 4
  %3 = load float, ptr %angle.addr, align 4
  %call1 = call noundef float @_ZSt3sinf(float noundef %3)
  %mul2 = fmul float %2, %call1
  call void @_ZN10aiVector3tIfEC2Efff(ptr noundef nonnull align 4 dereferenceable(12) %retval, float noundef %mul, float noundef %mul2, float noundef 0.000000e+00)
  call void @llvm.memcpy.p0.p0.i64(ptr align 8 %retval.coerce, ptr align 4 %retval, i64 12, i1 false)
  %4 = load { <2 x float>, float }, ptr %retval.coerce, align 8
  ret { <2 x float>, float } %4
}