; Function Attrs: mustprogress nofree nounwind willreturn memory(write) uwtable
define hidden { <2 x float>, float } @_ZN6Assimp12X3DGeoHelper12make_point2DEff(float noundef %angle, float noundef %radius) local_unnamed_addr #2 align 2 {
entry:
  %call.i = tail call noundef float @cosf(float noundef %angle) #20
  %call.i3 = tail call noundef float @sinf(float noundef %angle) #20
  %0 = insertelement <2 x float> poison, float %call.i, i64 0
  %1 = insertelement <2 x float> %0, float %call.i3, i64 1
  %2 = insertelement <2 x float> poison, float %radius, i64 0
  %3 = shufflevector <2 x float> %2, <2 x float> poison, <2 x i32> zeroinitializer
  %4 = fmul <2 x float> %1, %3
  %.fca.0.insert = insertvalue { <2 x float>, float } poison, <2 x float> %4, 0
  %.fca.1.insert = insertvalue { <2 x float>, float } %.fca.0.insert, float 0.000000e+00, 1
  ret { <2 x float>, float } %.fca.1.insert
}